target datalayout = "e-m:e-p270:32:32-p271:32:32-p272:64:64-i64:64-i128:128-f80:128-n8:16:32:64-S128"
target triple = "x86_64-pc-linux-gnu"

%"struct.Luau::CodeGen::NativeProtoExecDataHeader" = type { ptr, ptr, i32, i32, i64 }
%struct.Proto = type { i8, i8, i8, i8, i8, i8, i8, i8, ptr, ptr, ptr, ptr, ptr, i64, ptr, ptr, ptr, ptr, ptr, ptr, ptr, ptr, ptr, ptr, i32, i32, i32, i32, i32, i32, i32, i32, i32, i32 }

; Function Attrs: mustprogress nounwind uwtable
define internal noundef i64 @_ZN4Luau7CodeGenL13getMemorySizeEP9lua_StateP5Proto(ptr noundef %0, ptr noundef %1) #1 {
  %3 = alloca ptr, align 8
  %4 = alloca ptr, align 8
  %5 = alloca ptr, align 8
  %6 = alloca i64, align 8
  store ptr %0, ptr %3, align 8, !tbaa !214
  store ptr %1, ptr %4, align 8, !tbaa !167
  call void @llvm.lifetime.start.p0(i64 8, ptr %5) #17
  %7 = load ptr, ptr %4, align 8, !tbaa !167
  %8 = getelementptr inbounds nuw %struct.Proto, ptr %7, i32 0, i32 12
  %9 = load ptr, ptr %8, align 8, !tbaa !183
  %10 = call noundef nonnull align 8 dereferenceable(32) ptr @_ZN4Luau7CodeGen28getNativeProtoExecDataHeaderEPKj(ptr noundef %9) #17
  store ptr %10, ptr %5, align 8, !tbaa !158
  call void @llvm.lifetime.start.p0(i64 8, ptr %6) #17
  %11 = load ptr, ptr %5, align 8, !tbaa !158
  %12 = getelementptr inbounds nuw %"struct.Luau::CodeGen::NativeProtoExecDataHeader", ptr %11, i32 0, i32 3
  %13 = load i32, ptr %12, align 4, !tbaa !266
  %14 = zext i32 %13 to i64
  %15 = mul i64 %14, 4
  %16 = add i64 32, %15
  store i64 %16, ptr %6, align 8, !tbaa !25
  %17 = load i64, ptr %6, align 8, !tbaa !25
  %18 = load ptr, ptr %5, align 8, !tbaa !158
  %19 = getelementptr inbounds nuw %"struct.Luau::CodeGen::NativeProtoExecDataHeader", ptr %18, i32 0, i32 4
  %20 = load i64, ptr %19, align 8, !tbaa !181
  %21 = add i64 %17, %20
  call void @llvm.lifetime.end.p0(i64 8, ptr %6) #17
  call void @llvm.lifetime.end.p0(i64 8, ptr %5) #17
  ret i64 %21
}