; Function Attrs: mustprogress nounwind uwtable
define internal noundef i64 @_ZN4Luau7CodeGenL13getMemorySizeEP9lua_StateP5Proto(ptr readnone captures(none) %0, ptr noundef readonly captures(none) %1) #7 {
  %3 = getelementptr inbounds nuw i8, ptr %1, i64 40
  %4 = load ptr, ptr %3, align 8, !tbaa !75
  %5 = tail call noundef nonnull align 8 dereferenceable(32) ptr @_ZN4Luau7CodeGen28getNativeProtoExecDataHeaderEPKj(ptr noundef %4) #24
  %6 = getelementptr inbounds nuw i8, ptr %5, i64 20
  %7 = load i32, ptr %6, align 4, !tbaa !281
  %8 = zext i32 %7 to i64
  %9 = shl nuw nsw i64 %8, 2
  %10 = getelementptr inbounds nuw i8, ptr %5, i64 24
  %11 = load i64, ptr %10, align 8, !tbaa !83
  %12 = add i64 %11, 32
  %13 = add i64 %12, %9
  ret i64 %13
}